; Function Attrs: nounwind sspstrong uwtable
define internal void @virtio_pci_vector_mask(ptr noundef readonly captures(none) %0, i32 noundef %1) #0 {
  %3 = getelementptr i8, ptr %0, i64 34160
  %.val = load ptr, ptr %3, align 8
  %.not.i = icmp eq ptr %.val, null
  br i1 %.not.i, label %virtio_bus_get_device.exit, label %4

4:                                                ; preds = %2
  %5 = getelementptr inbounds nuw i8, ptr %.val, i64 16
  %6 = load ptr, ptr %5, align 8
  br label %virtio_bus_get_device.exit

virtio_bus_get_device.exit:                       ; preds = %2, %4
  %7 = phi ptr [ %6, %4 ], [ null, %2 ]
  %8 = trunc i32 %1 to i16
  %9 = tail call ptr @virtio_vector_first_queue(ptr noundef %7, i16 noundef zeroext %8) #15
  %.not33 = icmp eq ptr %9, null
  br i1 %.not33, label %._crit_edge, label %.lr.ph

.lr.ph:                                           ; preds = %virtio_bus_get_device.exit
  %10 = getelementptr inbounds nuw i8, ptr %0, i64 34072
  %11 = getelementptr i8, ptr %0, i64 34064
  %12 = zext i32 %1 to i64
  br label %13

13:                                               ; preds = %.lr.ph, %virtio_pci_one_vector_mask.exit
  %.034 = phi ptr [ %9, %.lr.ph ], [ %42, %virtio_pci_one_vector_mask.exit ]
  %14 = tail call zeroext i16 @virtio_get_queue_index(ptr noundef nonnull %.034) #15
  %15 = zext i16 %14 to i32
  %16 = tail call ptr @virtio_queue_get_guest_notifier(ptr noundef nonnull %.034) #15
  %17 = tail call i32 @virtio_queue_get_num(ptr noundef %7, i32 noundef %15) #15
  %.not25 = icmp eq i32 %17, 0
  br i1 %.not25, label %._crit_edge, label %18

18:                                               ; preds = %13
  %19 = load i32, ptr %10, align 8
  %20 = icmp sgt i32 %19, %15
  br i1 %20, label %21, label %virtio_pci_one_vector_mask.exit

21:                                               ; preds = %18
  %.val.i = load ptr, ptr %3, align 8
  %.not.i.i = icmp eq ptr %.val.i, null
  br i1 %.not.i.i, label %virtio_bus_get_device.exit.i, label %22

22:                                               ; preds = %21
  %23 = getelementptr inbounds nuw i8, ptr %.val.i, i64 16
  %24 = load ptr, ptr %23, align 8
  br label %virtio_bus_get_device.exit.i

virtio_bus_get_device.exit.i:                     ; preds = %22, %21
  %25 = phi ptr [ %24, %22 ], [ null, %21 ]
  %26 = tail call ptr @object_get_class(ptr noundef %25) #15
  %27 = tail call ptr @object_class_dynamic_cast_assert(ptr noundef %26, ptr noundef nonnull @.str.42, ptr noundef nonnull @.str.43, i32 noundef 88, ptr noundef nonnull @__func__.VIRTIO_DEVICE_GET_CLASS) #15
  %28 = getelementptr inbounds nuw i8, ptr %25, i64 457
  %29 = load i8, ptr %28, align 1, !range !7, !noundef !6
  %30 = trunc nuw i8 %29 to i1
  br i1 %30, label %31, label %35

31:                                               ; preds = %virtio_bus_get_device.exit.i
  %32 = getelementptr inbounds nuw i8, ptr %27, i64 296
  %33 = load ptr, ptr %32, align 8
  %.not.i26 = icmp eq ptr %33, null
  br i1 %.not.i26, label %35, label %34

34:                                               ; preds = %31
  tail call void %33(ptr noundef nonnull %25, i32 noundef range(i32 -1, 65536) %15, i1 noundef zeroext true) #15
  br label %virtio_pci_one_vector_mask.exit

35:                                               ; preds = %31, %virtio_bus_get_device.exit.i
  %.val9.i = load ptr, ptr %11, align 16
  %36 = load ptr, ptr @kvm_state, align 8
  %37 = getelementptr inbounds nuw %struct.VirtIOIRQFD, ptr %.val9.i, i64 %12, i32 1
  %38 = load i32, ptr %37, align 8
  %39 = tail call i32 @kvm_irqchip_remove_irqfd_notifier_gsi(ptr noundef %36, ptr noundef %16, i32 noundef %38) #15
  %40 = icmp eq i32 %39, 0
  br i1 %40, label %virtio_pci_one_vector_mask.exit, label %41

41:                                               ; preds = %35
  tail call void @__assert_fail(ptr noundef nonnull @.str.44, ptr noundef nonnull @.str.5, i32 noundef 865, ptr noundef nonnull @__PRETTY_FUNCTION__.kvm_virtio_pci_irqfd_release) #16
  unreachable

virtio_pci_one_vector_mask.exit:                  ; preds = %35, %34, %18
  %42 = tail call ptr @virtio_vector_next_queue(ptr noundef nonnull %.034) #15
  %.not = icmp eq ptr %42, null
  br i1 %.not, label %._crit_edge, label %13, !llvm.loop !14

._crit_edge:                                      ; preds = %virtio_pci_one_vector_mask.exit, %13, %virtio_bus_get_device.exit
  %43 = getelementptr inbounds nuw i8, ptr %7, i64 208
  %44 = load i16, ptr %43, align 8
  %45 = zext i16 %44 to i32
  %46 = icmp eq i32 %1, %45
  br i1 %46, label %47, label %virtio_pci_one_vector_mask.exit32

47:                                               ; preds = %._crit_edge
  %48 = tail call ptr @virtio_config_get_guest_notifier(ptr noundef nonnull %7) #15
  %.val.i27 = load ptr, ptr %3, align 8
  %.not.i.i28 = icmp eq ptr %.val.i27, null
  br i1 %.not.i.i28, label %virtio_bus_get_device.exit.i29, label %49

49:                                               ; preds = %47
  %50 = getelementptr inbounds nuw i8, ptr %.val.i27, i64 16
  %51 = load ptr, ptr %50, align 8
  br label %virtio_bus_get_device.exit.i29

virtio_bus_get_device.exit.i29:                   ; preds = %49, %47
  %52 = phi ptr [ %51, %49 ], [ null, %47 ]
  %53 = tail call ptr @object_get_class(ptr noundef %52) #15
  %54 = tail call ptr @object_class_dynamic_cast_assert(ptr noundef %53, ptr noundef nonnull @.str.42, ptr noundef nonnull @.str.43, i32 noundef 88, ptr noundef nonnull @__func__.VIRTIO_DEVICE_GET_CLASS) #15
  %55 = getelementptr inbounds nuw i8, ptr %52, i64 457
  %56 = load i8, ptr %55, align 1, !range !7, !noundef !6
  %57 = trunc nuw i8 %56 to i1
  br i1 %57, label %58, label %62

58:                                               ; preds = %virtio_bus_get_device.exit.i29
  %59 = getelementptr inbounds nuw i8, ptr %54, i64 296
  %60 = load ptr, ptr %59, align 8
  %.not.i31 = icmp eq ptr %60, null
  br i1 %.not.i31, label %62, label %61

61:                                               ; preds = %58
  tail call void %60(ptr noundef nonnull %52, i32 noundef -1, i1 noundef zeroext true) #15
  br label %virtio_pci_one_vector_mask.exit32

62:                                               ; preds = %58, %virtio_bus_get_device.exit.i29
  %63 = getelementptr i8, ptr %0, i64 34064
  %.val9.i30 = load ptr, ptr %63, align 16
  %64 = zext nneg i32 %1 to i64
  %65 = load ptr, ptr @kvm_state, align 8
  %66 = getelementptr inbounds nuw %struct.VirtIOIRQFD, ptr %.val9.i30, i64 %64, i32 1
  %67 = load i32, ptr %66, align 8
  %68 = tail call i32 @kvm_irqchip_remove_irqfd_notifier_gsi(ptr noundef %65, ptr noundef %48, i32 noundef %67) #15
  %69 = icmp eq i32 %68, 0
  br i1 %69, label %virtio_pci_one_vector_mask.exit32, label %70

70:                                               ; preds = %62
  tail call void @__assert_fail(ptr noundef nonnull @.str.44, ptr noundef nonnull @.str.5, i32 noundef 865, ptr noundef nonnull @__PRETTY_FUNCTION__.kvm_virtio_pci_irqfd_release) #16
  unreachable

virtio_pci_one_vector_mask.exit32:                ; preds = %62, %61, %._crit_edge
  ret void
}